target datalayout = "e-m:e-p270:32:32-p271:32:32-p272:64:64-i64:64-i128:128-f80:128-n8:16:32:64-S128"
target triple = "x86_64-pc-linux-gnu"

%"class.Imf_3_4::Context" = type { %"class.std::shared_ptr" }
%"class.std::shared_ptr" = type { %"class.std::__shared_ptr" }
%"class.std::__shared_ptr" = type { ptr, %"class.std::__shared_count" }
%"class.std::__shared_count" = type { ptr }
%"class.std::__cxx11::basic_stringstream" = type { %"class.std::basic_iostream.base", %"class.std::__cxx11::basic_stringbuf", %"class.std::basic_ios" }
%"class.std::basic_iostream.base" = type { %"class.std::basic_istream.base", %"class.std::basic_ostream.base" }
%"class.std::basic_istream.base" = type { ptr, i64 }
%"class.std::basic_ostream.base" = type { ptr }
%"class.std::__cxx11::basic_stringbuf" = type { %"class.std::basic_streambuf", i32, %"class.std::__cxx11::basic_string" }
%"class.std::basic_streambuf" = type { ptr, ptr, ptr, ptr, ptr, ptr, ptr, %"class.std::locale" }
%"class.std::locale" = type { ptr }
%"class.std::__cxx11::basic_string" = type { %"struct.std::__cxx11::basic_string<char>::_Alloc_hider", i64, %union.anon }
%"struct.std::__cxx11::basic_string<char>::_Alloc_hider" = type { ptr }
%union.anon = type { i64, [8 x i8] }
%"class.std::basic_ios" = type { %"class.std::ios_base", ptr, i8, i8, ptr, ptr, ptr, ptr }
%"class.std::ios_base" = type { ptr, i64, i64, i32, i32, i32, ptr, %"struct.std::ios_base::_Words", [8 x %"struct.std::ios_base::_Words"], i32, ptr, %"class.std::locale" }
%"struct.std::ios_base::_Words" = type { ptr, i64 }
%"class.Imf_3_4::ContextInitializer" = type { %struct._exr_context_initializer_v3, i32, ptr }
%struct._exr_context_initializer_v3 = type { i64, ptr, ptr, ptr, ptr, ptr, ptr, ptr, ptr, i32, i32, i32, i32, i32, float, i32, [4 x i8] }

@.str = private unnamed_addr constant [55 x i8] c"Invalid or missing attribute when attempting to open '\00", align 1
@.str.1 = private unnamed_addr constant [11 x i8] c"' for read\00", align 1
@_ZTIN7Iex_3_46ArgExcE = external constant ptr
@.str.2 = private unnamed_addr constant [17 x i8] c"Unable to open '\00", align 1
@_ZTIN7Iex_3_48InputExcE = external constant ptr

; Function Attrs: mustprogress nounwind uwtable
define linkonce_odr hidden noundef ptr @_ZNKSt12__shared_ptrIP19_priv_exr_context_tLN9__gnu_cxx12_Lock_policyE2EE3getEv(ptr noundef nonnull align 8 dereferenceable(16) %0) #7 comdat align 2 {
  %2 = alloca ptr, align 8
  store ptr %0, ptr %2, align 8, !tbaa !21
  %3 = load ptr, ptr %2, align 8
  %4 = getelementptr inbounds nuw %"class.std::__shared_ptr", ptr %3, i32 0, i32 0
  %5 = load ptr, ptr %4, align 8, !tbaa !23
  ret ptr %5
}

; Function Attrs: mustprogress uwtable
define void @_ZN7Imf_3_47ContextC2EPKcRKNS_18ContextInitializerENS0_11read_mode_tE(ptr noundef nonnull align 8 dereferenceable(16) %0, ptr noundef %1, ptr noundef nonnull align 8 dereferenceable(120) %2) unnamed_addr #4 align 2 personality ptr @__gxx_personality_v0 {
  %4 = alloca ptr, align 8
  %5 = alloca ptr, align 8
  %6 = alloca ptr, align 8
  %7 = alloca i32, align 4
  %8 = alloca ptr, align 8
  %9 = alloca i32, align 4
  %10 = alloca %"class.std::__cxx11::basic_stringstream", align 8
  %11 = alloca %"class.std::__cxx11::basic_stringstream", align 8
  store ptr %0, ptr %4, align 8, !tbaa !3
  store ptr %1, ptr %5, align 8, !tbaa !15
  store ptr %2, ptr %6, align 8, !tbaa !17
  %12 = load ptr, ptr %4, align 8
  call void @_ZN7Imf_3_47ContextC2Ev(ptr noundef nonnull align 8 dereferenceable(16) %12)
  call void @llvm.lifetime.start.p0(i64 4, ptr %7) #3
  %13 = getelementptr inbounds nuw %"class.Imf_3_4::Context", ptr %12, i32 0, i32 0
  %14 = call noundef ptr @_ZNKSt12__shared_ptrIP19_priv_exr_context_tLN9__gnu_cxx12_Lock_policyE2EE3getEv(ptr noundef nonnull align 8 dereferenceable(16) %13) #3
  %15 = load ptr, ptr %5, align 8, !tbaa !15
  %16 = load ptr, ptr %6, align 8, !tbaa !17
  %17 = getelementptr inbounds nuw %"class.Imf_3_4::ContextInitializer", ptr %16, i32 0, i32 0
  %18 = invoke i32 @exr_start_read(ptr noundef %14, ptr noundef %15, ptr noundef %17)
          to label %19 unwind label %39

19:                                               ; preds = %3
  store i32 %18, ptr %7, align 4, !tbaa !19
  %20 = load i32, ptr %7, align 4, !tbaa !19
  %21 = icmp ne i32 0, %20
  br i1 %21, label %22, label %90

22:                                               ; preds = %19
  %23 = load i32, ptr %7, align 4, !tbaa !19
  %24 = icmp eq i32 %23, 13
  br i1 %24, label %25, label %59

25:                                               ; preds = %22
  br label %26

26:                                               ; preds = %25
  invoke void @_Z13iex_debugTrapv()
          to label %27 unwind label %39

27:                                               ; preds = %26
  call void @llvm.lifetime.start.p0(i64 392, ptr %10) #3
  invoke void @_ZNSt7__cxx1118basic_stringstreamIcSt11char_traitsIcESaIcEEC1Ev(ptr noundef nonnull align 8 dereferenceable(128) %10)
          to label %28 unwind label %43

28:                                               ; preds = %27
  %29 = getelementptr inbounds i8, ptr %10, i64 16
  %30 = invoke noundef nonnull align 8 dereferenceable(8) ptr @_ZStlsISt11char_traitsIcEERSt13basic_ostreamIcT_ES5_PKc(ptr noundef nonnull align 8 dereferenceable(8) %29, ptr noundef @.str)
          to label %31 unwind label %47

31:                                               ; preds = %28
  %32 = load ptr, ptr %5, align 8, !tbaa !15
  %33 = invoke noundef nonnull align 8 dereferenceable(8) ptr @_ZStlsISt11char_traitsIcEERSt13basic_ostreamIcT_ES5_PKc(ptr noundef nonnull align 8 dereferenceable(8) %30, ptr noundef %32)
          to label %34 unwind label %47

34:                                               ; preds = %31
  %35 = invoke noundef nonnull align 8 dereferenceable(8) ptr @_ZStlsISt11char_traitsIcEERSt13basic_ostreamIcT_ES5_PKc(ptr noundef nonnull align 8 dereferenceable(8) %33, ptr noundef @.str.1)
          to label %36 unwind label %47

36:                                               ; preds = %34
  %37 = call ptr @__cxa_allocate_exception(i64 72) #3
  invoke void @_ZN7Iex_3_46ArgExcC1ERNSt7__cxx1118basic_stringstreamIcSt11char_traitsIcESaIcEEE(ptr noundef nonnull align 8 dereferenceable(72) %37, ptr noundef nonnull align 8 dereferenceable(128) %10)
          to label %38 unwind label %51

38:                                               ; preds = %36
  invoke void @__cxa_throw(ptr %37, ptr @_ZTIN7Iex_3_46ArgExcE, ptr @_ZN7Iex_3_46ArgExcD1Ev) #23
          to label %97 unwind label %47

39:                                               ; preds = %60, %26, %3
  %40 = landingpad { ptr, i32 }
          cleanup
  %41 = extractvalue { ptr, i32 } %40, 0
  store ptr %41, ptr %8, align 8
  %42 = extractvalue { ptr, i32 } %40, 1
  store i32 %42, ptr %9, align 4
  br label %91

43:                                               ; preds = %27
  %44 = landingpad { ptr, i32 }
          cleanup
  %45 = extractvalue { ptr, i32 } %44, 0
  store ptr %45, ptr %8, align 8
  %46 = extractvalue { ptr, i32 } %44, 1
  store i32 %46, ptr %9, align 4
  br label %56

47:                                               ; preds = %38, %34, %31, %28
  %48 = landingpad { ptr, i32 }
          cleanup
  %49 = extractvalue { ptr, i32 } %48, 0
  store ptr %49, ptr %8, align 8
  %50 = extractvalue { ptr, i32 } %48, 1
  store i32 %50, ptr %9, align 4
  br label %55

51:                                               ; preds = %36
  %52 = landingpad { ptr, i32 }
          cleanup
  %53 = extractvalue { ptr, i32 } %52, 0
  store ptr %53, ptr %8, align 8
  %54 = extractvalue { ptr, i32 } %52, 1
  store i32 %54, ptr %9, align 4
  call void @__cxa_free_exception(ptr %37) #3
  br label %55

55:                                               ; preds = %51, %47
  call void @_ZNSt7__cxx1118basic_stringstreamIcSt11char_traitsIcESaIcEED1Ev(ptr noundef nonnull align 8 dereferenceable(128) %10) #3
  br label %56

56:                                               ; preds = %55, %43
  call void @llvm.lifetime.end.p0(i64 392, ptr %10) #3
  br label %91

57:                                               ; No predecessors!
  br label %58

58:                                               ; preds = %57
  br label %89

59:                                               ; preds = %22
  br label %60

60:                                               ; preds = %59
  invoke void @_Z13iex_debugTrapv()
          to label %61 unwind label %39

61:                                               ; preds = %60
  call void @llvm.lifetime.start.p0(i64 392, ptr %11) #3
  invoke void @_ZNSt7__cxx1118basic_stringstreamIcSt11char_traitsIcESaIcEEC1Ev(ptr noundef nonnull align 8 dereferenceable(128) %11)
          to label %62 unwind label %73

62:                                               ; preds = %61
  %63 = getelementptr inbounds i8, ptr %11, i64 16
  %64 = invoke noundef nonnull align 8 dereferenceable(8) ptr @_ZStlsISt11char_traitsIcEERSt13basic_ostreamIcT_ES5_PKc(ptr noundef nonnull align 8 dereferenceable(8) %63, ptr noundef @.str.2)
          to label %65 unwind label %77

65:                                               ; preds = %62
  %66 = load ptr, ptr %5, align 8, !tbaa !15
  %67 = invoke noundef nonnull align 8 dereferenceable(8) ptr @_ZStlsISt11char_traitsIcEERSt13basic_ostreamIcT_ES5_PKc(ptr noundef nonnull align 8 dereferenceable(8) %64, ptr noundef %66)
          to label %68 unwind label %77

68:                                               ; preds = %65
  %69 = invoke noundef nonnull align 8 dereferenceable(8) ptr @_ZStlsISt11char_traitsIcEERSt13basic_ostreamIcT_ES5_PKc(ptr noundef nonnull align 8 dereferenceable(8) %67, ptr noundef @.str.1)
          to label %70 unwind label %77

70:                                               ; preds = %68
  %71 = call ptr @__cxa_allocate_exception(i64 72) #3
  invoke void @_ZN7Iex_3_48InputExcC1ERNSt7__cxx1118basic_stringstreamIcSt11char_traitsIcESaIcEEE(ptr noundef nonnull align 8 dereferenceable(72) %71, ptr noundef nonnull align 8 dereferenceable(128) %11)
          to label %72 unwind label %81

72:                                               ; preds = %70
  invoke void @__cxa_throw(ptr %71, ptr @_ZTIN7Iex_3_48InputExcE, ptr @_ZN7Iex_3_48InputExcD1Ev) #23
          to label %97 unwind label %77

73:                                               ; preds = %61
  %74 = landingpad { ptr, i32 }
          cleanup
  %75 = extractvalue { ptr, i32 } %74, 0
  store ptr %75, ptr %8, align 8
  %76 = extractvalue { ptr, i32 } %74, 1
  store i32 %76, ptr %9, align 4
  br label %86

77:                                               ; preds = %72, %68, %65, %62
  %78 = landingpad { ptr, i32 }
          cleanup
  %79 = extractvalue { ptr, i32 } %78, 0
  store ptr %79, ptr %8, align 8
  %80 = extractvalue { ptr, i32 } %78, 1
  store i32 %80, ptr %9, align 4
  br label %85

81:                                               ; preds = %70
  %82 = landingpad { ptr, i32 }
          cleanup
  %83 = extractvalue { ptr, i32 } %82, 0
  store ptr %83, ptr %8, align 8
  %84 = extractvalue { ptr, i32 } %82, 1
  store i32 %84, ptr %9, align 4
  call void @__cxa_free_exception(ptr %71) #3
  br label %85

85:                                               ; preds = %81, %77
  call void @_ZNSt7__cxx1118basic_stringstreamIcSt11char_traitsIcESaIcEED1Ev(ptr noundef nonnull align 8 dereferenceable(128) %11) #3
  br label %86

86:                                               ; preds = %85, %73
  call void @llvm.lifetime.end.p0(i64 392, ptr %11) #3
  br label %91

87:                                               ; No predecessors!
  br label %88

88:                                               ; preds = %87
  br label %89

89:                                               ; preds = %88, %58
  br label %90

90:                                               ; preds = %89, %19
  call void @llvm.lifetime.end.p0(i64 4, ptr %7) #3
  ret void

91:                                               ; preds = %86, %56, %39
  call void @llvm.lifetime.end.p0(i64 4, ptr %7) #3
  call void @_ZN7Imf_3_47ContextD2Ev(ptr noundef nonnull align 8 dereferenceable(16) %12) #3
  br label %92

92:                                               ; preds = %91
  %93 = load ptr, ptr %8, align 8
  %94 = load i32, ptr %9, align 4
  %95 = insertvalue { ptr, i32 } poison, ptr %93, 0
  %96 = insertvalue { ptr, i32 } %95, i32 %94, 1
  resume { ptr, i32 } %96

97:                                               ; preds = %72, %38
  unreachable
}