; Function Attrs: mustprogress uwtable
define void @_ZN7Imf_3_47ContextC2EPKcRKNS_18ContextInitializerENS0_11read_mode_tE(ptr noundef nonnull align 8 dereferenceable(16) initializes((0, 16)) %0, ptr noundef %1, ptr noundef nonnull align 8 dereferenceable(120) %2) unnamed_addr #3 align 2 personality ptr @__gxx_personality_v0 {
  %4 = alloca %"class.std::__cxx11::basic_stringstream", align 8
  %5 = alloca %"class.std::__cxx11::basic_stringstream", align 8
  tail call void @_ZN7Imf_3_47ContextC2Ev(ptr noundef nonnull align 8 dereferenceable(16) %0)
  %6 = load ptr, ptr %0, align 8, !tbaa !8
  %7 = invoke i32 @exr_start_read(ptr noundef %6, ptr noundef %1, ptr noundef nonnull %2)
          to label %8 unwind label %19

8:                                                ; preds = %3
  switch i32 %7, label %29 [
    i32 0, label %47
    i32 13, label %9
  ]

9:                                                ; preds = %8
  invoke void @_Z13iex_debugTrapv()
          to label %10 unwind label %19

10:                                               ; preds = %9
  call void @llvm.lifetime.start.p0(i64 392, ptr nonnull %4) #30
  invoke void @_ZNSt7__cxx1118basic_stringstreamIcSt11char_traitsIcESaIcEEC1Ev(ptr noundef nonnull align 8 dereferenceable(128) %4)
          to label %11 unwind label %21

11:                                               ; preds = %10
  %12 = getelementptr inbounds nuw i8, ptr %4, i64 16
  %13 = invoke noundef nonnull align 8 dereferenceable(8) ptr @_ZSt16__ostream_insertIcSt11char_traitsIcEERSt13basic_ostreamIT_T0_ES6_PKS3_l(ptr noundef nonnull align 8 dereferenceable(8) %12, ptr noundef nonnull @.str, i64 noundef 54)
          to label %_ZStlsISt11char_traitsIcEERSt13basic_ostreamIcT_ES5_PKc.exit unwind label %23

_ZStlsISt11char_traitsIcEERSt13basic_ostreamIcT_ES5_PKc.exit: ; preds = %11
  %14 = invoke noundef nonnull align 8 dereferenceable(8) ptr @_ZStlsISt11char_traitsIcEERSt13basic_ostreamIcT_ES5_PKc(ptr noundef nonnull align 8 dereferenceable(8) %12, ptr noundef %1)
          to label %15 unwind label %23

15:                                               ; preds = %_ZStlsISt11char_traitsIcEERSt13basic_ostreamIcT_ES5_PKc.exit
  %16 = invoke noundef nonnull align 8 dereferenceable(8) ptr @_ZSt16__ostream_insertIcSt11char_traitsIcEERSt13basic_ostreamIT_T0_ES6_PKS3_l(ptr noundef nonnull align 8 dereferenceable(8) %14, ptr noundef nonnull @.str.1, i64 noundef 10)
          to label %_ZStlsISt11char_traitsIcEERSt13basic_ostreamIcT_ES5_PKc.exit20 unwind label %23

_ZStlsISt11char_traitsIcEERSt13basic_ostreamIcT_ES5_PKc.exit20: ; preds = %15
  %17 = call ptr @__cxa_allocate_exception(i64 72) #30
  invoke void @_ZN7Iex_3_46ArgExcC1ERNSt7__cxx1118basic_stringstreamIcSt11char_traitsIcESaIcEEE(ptr noundef nonnull align 8 dereferenceable(72) %17, ptr noundef nonnull align 8 dereferenceable(128) %4)
          to label %18 unwind label %25

18:                                               ; preds = %_ZStlsISt11char_traitsIcEERSt13basic_ostreamIcT_ES5_PKc.exit20
  invoke void @__cxa_throw(ptr nonnull %17, ptr nonnull @_ZTIN7Iex_3_46ArgExcE, ptr nonnull @_ZN7Iex_3_46ArgExcD1Ev) #32
          to label %49 unwind label %23

19:                                               ; preds = %29, %9, %3
  %20 = landingpad { ptr, i32 }
          cleanup
  br label %48

21:                                               ; preds = %10
  %22 = landingpad { ptr, i32 }
          cleanup
  br label %28

23:                                               ; preds = %15, %11, %18, %_ZStlsISt11char_traitsIcEERSt13basic_ostreamIcT_ES5_PKc.exit
  %24 = landingpad { ptr, i32 }
          cleanup
  br label %27

25:                                               ; preds = %_ZStlsISt11char_traitsIcEERSt13basic_ostreamIcT_ES5_PKc.exit20
  %26 = landingpad { ptr, i32 }
          cleanup
  call void @__cxa_free_exception(ptr nonnull %17) #30
  br label %27

27:                                               ; preds = %25, %23
  %.pn16 = phi { ptr, i32 } [ %24, %23 ], [ %26, %25 ]
  call void @_ZNSt7__cxx1118basic_stringstreamIcSt11char_traitsIcESaIcEED1Ev(ptr noundef nonnull align 8 dereferenceable(128) %4) #30
  br label %28

28:                                               ; preds = %27, %21
  %.pn16.pn = phi { ptr, i32 } [ %.pn16, %27 ], [ %22, %21 ]
  call void @llvm.lifetime.end.p0(i64 392, ptr nonnull %4) #30
  br label %48

29:                                               ; preds = %8
  invoke void @_Z13iex_debugTrapv()
          to label %30 unwind label %19

30:                                               ; preds = %29
  call void @llvm.lifetime.start.p0(i64 392, ptr nonnull %5) #30
  invoke void @_ZNSt7__cxx1118basic_stringstreamIcSt11char_traitsIcESaIcEEC1Ev(ptr noundef nonnull align 8 dereferenceable(128) %5)
          to label %31 unwind label %39

31:                                               ; preds = %30
  %32 = getelementptr inbounds nuw i8, ptr %5, i64 16
  %33 = invoke noundef nonnull align 8 dereferenceable(8) ptr @_ZSt16__ostream_insertIcSt11char_traitsIcEERSt13basic_ostreamIT_T0_ES6_PKS3_l(ptr noundef nonnull align 8 dereferenceable(8) %32, ptr noundef nonnull @.str.2, i64 noundef 16)
          to label %_ZStlsISt11char_traitsIcEERSt13basic_ostreamIcT_ES5_PKc.exit21 unwind label %41

_ZStlsISt11char_traitsIcEERSt13basic_ostreamIcT_ES5_PKc.exit21: ; preds = %31
  %34 = invoke noundef nonnull align 8 dereferenceable(8) ptr @_ZStlsISt11char_traitsIcEERSt13basic_ostreamIcT_ES5_PKc(ptr noundef nonnull align 8 dereferenceable(8) %32, ptr noundef %1)
          to label %35 unwind label %41

35:                                               ; preds = %_ZStlsISt11char_traitsIcEERSt13basic_ostreamIcT_ES5_PKc.exit21
  %36 = invoke noundef nonnull align 8 dereferenceable(8) ptr @_ZSt16__ostream_insertIcSt11char_traitsIcEERSt13basic_ostreamIT_T0_ES6_PKS3_l(ptr noundef nonnull align 8 dereferenceable(8) %34, ptr noundef nonnull @.str.1, i64 noundef 10)
          to label %_ZStlsISt11char_traitsIcEERSt13basic_ostreamIcT_ES5_PKc.exit22 unwind label %41

_ZStlsISt11char_traitsIcEERSt13basic_ostreamIcT_ES5_PKc.exit22: ; preds = %35
  %37 = call ptr @__cxa_allocate_exception(i64 72) #30
  invoke void @_ZN7Iex_3_48InputExcC1ERNSt7__cxx1118basic_stringstreamIcSt11char_traitsIcESaIcEEE(ptr noundef nonnull align 8 dereferenceable(72) %37, ptr noundef nonnull align 8 dereferenceable(128) %5)
          to label %38 unwind label %43

38:                                               ; preds = %_ZStlsISt11char_traitsIcEERSt13basic_ostreamIcT_ES5_PKc.exit22
  invoke void @__cxa_throw(ptr nonnull %37, ptr nonnull @_ZTIN7Iex_3_48InputExcE, ptr nonnull @_ZN7Iex_3_48InputExcD1Ev) #32
          to label %49 unwind label %41

39:                                               ; preds = %30
  %40 = landingpad { ptr, i32 }
          cleanup
  br label %46

41:                                               ; preds = %35, %31, %38, %_ZStlsISt11char_traitsIcEERSt13basic_ostreamIcT_ES5_PKc.exit21
  %42 = landingpad { ptr, i32 }
          cleanup
  br label %45

43:                                               ; preds = %_ZStlsISt11char_traitsIcEERSt13basic_ostreamIcT_ES5_PKc.exit22
  %44 = landingpad { ptr, i32 }
          cleanup
  call void @__cxa_free_exception(ptr nonnull %37) #30
  br label %45

45:                                               ; preds = %43, %41
  %.pn = phi { ptr, i32 } [ %42, %41 ], [ %44, %43 ]
  call void @_ZNSt7__cxx1118basic_stringstreamIcSt11char_traitsIcESaIcEED1Ev(ptr noundef nonnull align 8 dereferenceable(128) %5) #30
  br label %46

46:                                               ; preds = %45, %39
  %.pn.pn = phi { ptr, i32 } [ %.pn, %45 ], [ %40, %39 ]
  call void @llvm.lifetime.end.p0(i64 392, ptr nonnull %5) #30
  br label %48

47:                                               ; preds = %8
  ret void

48:                                               ; preds = %46, %28, %19
  %.pn16.pn.pn = phi { ptr, i32 } [ %.pn16.pn, %28 ], [ %20, %19 ], [ %.pn.pn, %46 ]
  call void @_ZN7Imf_3_47ContextD2Ev(ptr noundef nonnull align 8 dereferenceable(16) %0) #30
  resume { ptr, i32 } %.pn16.pn.pn

49:                                               ; preds = %38, %18
  unreachable
}